; Function Attrs: nounwind uwtable
define void @Gia_ManSifDupNode(ptr noundef %0, ptr noundef %1, i32 noundef %2, ptr noundef readonly captures(none) %3) local_unnamed_addr #0 {
  %5 = getelementptr i8, ptr %1, i64 32
  %.val = load ptr, ptr %5, align 8, !tbaa !28
  %6 = sext i32 %2 to i64
  tail call void @Gia_ManIncrementTravId(ptr noundef %1) #24
  %7 = getelementptr i8, ptr %1, i64 264
  %.val23 = load ptr, ptr %7, align 8, !tbaa !38
  %8 = getelementptr i8, ptr %.val23, i64 8
  %.val23.val = load ptr, ptr %8, align 8, !tbaa !39
  %9 = getelementptr inbounds i32, ptr %.val23.val, i64 %6
  %10 = load i32, ptr %9, align 4, !tbaa !29
  %11 = sext i32 %10 to i64
  %12 = getelementptr inbounds i32, ptr %.val23.val, i64 %11
  %13 = load i32, ptr %12, align 4, !tbaa !29
  %14 = icmp sgt i32 %13, 0
  br i1 %14, label %.lr.ph, label %.critedge

.lr.ph:                                           ; preds = %4
  %15 = getelementptr i8, ptr %3, i64 8
  %.val22 = load ptr, ptr %15, align 8, !tbaa !39
  %.val21 = load ptr, ptr %5, align 8, !tbaa !28
  %16 = getelementptr i8, ptr %1, i64 176
  %17 = getelementptr i8, ptr %1, i64 616
  %.val26 = load ptr, ptr %17, align 8, !tbaa !3
  %invariant.gep = getelementptr i8, ptr %.val23.val, i64 4
  br label %18

18:                                               ; preds = %.lr.ph, %Gia_ObjUpdateTravIdCurrentId.exit
  %indvars.iv = phi i64 [ 0, %.lr.ph ], [ %indvars.iv.next, %Gia_ObjUpdateTravIdCurrentId.exit ]
  %19 = phi i64 [ %11, %.lr.ph ], [ %30, %Gia_ObjUpdateTravIdCurrentId.exit ]
  %gep = getelementptr i32, ptr %invariant.gep, i64 %19
  %20 = getelementptr inbounds nuw i32, ptr %gep, i64 %indvars.iv
  %21 = load i32, ptr %20, align 4, !tbaa !29
  %22 = sext i32 %21 to i64
  %23 = getelementptr inbounds i32, ptr %.val22, i64 %22
  %24 = load i32, ptr %23, align 4, !tbaa !29
  %25 = getelementptr inbounds %struct.Gia_Obj_t_, ptr %.val21, i64 %22, i32 1
  store i32 %24, ptr %25, align 4, !tbaa !31
  %.val25 = load i32, ptr %16, align 8, !tbaa !30
  %26 = getelementptr inbounds i32, ptr %.val26, i64 %22
  %27 = load i32, ptr %26, align 4, !tbaa !29
  %.not.i = icmp eq i32 %27, %.val25
  br i1 %.not.i, label %Gia_ObjUpdateTravIdCurrentId.exit, label %28

28:                                               ; preds = %18
  store i32 %.val25, ptr %26, align 4, !tbaa !29
  br label %Gia_ObjUpdateTravIdCurrentId.exit

Gia_ObjUpdateTravIdCurrentId.exit:                ; preds = %18, %28
  %indvars.iv.next = add nuw nsw i64 %indvars.iv, 1
  %29 = load i32, ptr %9, align 4, !tbaa !29
  %30 = sext i32 %29 to i64
  %31 = getelementptr inbounds i32, ptr %.val23.val, i64 %30
  %32 = load i32, ptr %31, align 4, !tbaa !29
  %33 = sext i32 %32 to i64
  %34 = icmp slt i64 %indvars.iv.next, %33
  br i1 %34, label %18, label %.critedge, !llvm.loop !40

.critedge:                                        ; preds = %Gia_ObjUpdateTravIdCurrentId.exit, %4
  %35 = getelementptr inbounds %struct.Gia_Obj_t_, ptr %.val, i64 %6
  tail call void @Gia_ManSifDupNode_rec(ptr noundef %0, ptr noundef nonnull %1, ptr noundef %35)
  %36 = getelementptr inbounds nuw i8, ptr %35, i64 8
  %37 = load i32, ptr %36, align 4, !tbaa !31
  %38 = getelementptr i8, ptr %3, i64 8
  %.val27 = load ptr, ptr %38, align 8, !tbaa !39
  %39 = getelementptr inbounds i32, ptr %.val27, i64 %6
  store i32 %37, ptr %39, align 4, !tbaa !29
  ret void
}